target datalayout = "e-m:e-p270:32:32-p271:32:32-p272:64:64-i64:64-i128:128-f80:128-n8:16:32:64-S128"
target triple = "x86_64-unknown-linux-gnu"

%class.svector = type { %class.vector.0 }
%class.vector.0 = type { ptr }
%"class.(anonymous namespace)::code_tree_manager" = type { ptr, ptr, ptr }
%"class.(anonymous namespace)::compiler" = type { ptr, ptr, ptr, ptr, i8, %class.ptr_vector.3, %class.svector, %class.svector, %class.svector.5, ptr, ptr, ptr, i32, i8, %class.svector.7, %class.obj_map, %class.svector.9, %class.svector, %class.ptr_vector.11, %class.ptr_vector.11, %class.ptr_vector.11 }
%class.ptr_vector.3 = type { %class.vector.4 }
%class.vector.4 = type { ptr }
%class.svector.5 = type { %class.vector.6 }
%class.vector.6 = type { ptr }
%class.obj_map = type { %class.core_hashtable }
%class.core_hashtable = type <{ ptr, i32, i32, i32, [4 x i8] }>
%class.svector.9 = type { %class.vector.10 }
%class.vector.10 = type { ptr }
%class.ptr_vector.11 = type { %class.vector.12 }
%class.vector.12 = type { ptr }
%class.ptr_vector.13 = type { %class.vector.14 }
%class.vector.14 = type { ptr }
%class.svector.7 = type { %class.vector.8 }
%class.vector.8 = type { ptr }
%"class.(anonymous namespace)::code_tree" = type { ptr, ptr, i32, i8, i32, i32, ptr, %class.ptr_vector.13 }
%class.app = type { %class.expr, ptr, i32, [0 x ptr] }
%class.expr = type { %class.ast }
%class.ast = type { i32, i24, i32, i32 }
%"struct.(anonymous namespace)::instruction" = type { i32, ptr }
%"struct.(anonymous namespace)::initn" = type <{ %"struct.(anonymous namespace)::instruction", i32, [4 x i8] }>

; Function Attrs: mustprogress nounwind uwtable
define internal void @_ZN12_GLOBAL__N_111instructionC2Ev(ptr noundef nonnull align 8 dereferenceable(16) %this) unnamed_addr #4 align 2 {
entry:
  %this.addr = alloca ptr, align 8
  store ptr %this, ptr %this.addr, align 8
  %this1 = load ptr, ptr %this.addr, align 8
  %m_next = getelementptr inbounds %"struct.(anonymous namespace)::instruction", ptr %this1, i32 0, i32 1
  store ptr null, ptr %m_next, align 8
  ret void
}

; Function Attrs: mustprogress nounwind uwtable
define internal void @_ZN12_GLOBAL__N_15initnC2Ev(ptr noundef nonnull align 8 dereferenceable(20) %this) unnamed_addr #4 align 2 {
entry:
  %this.addr = alloca ptr, align 8
  store ptr %this, ptr %this.addr, align 8
  %this1 = load ptr, ptr %this.addr, align 8
  call void @_ZN12_GLOBAL__N_111instructionC2Ev(ptr noundef nonnull align 8 dereferenceable(16) %this1) #3
  ret void
}

; Function Attrs: mustprogress nounwind uwtable
define linkonce_odr hidden void @_ZN6vectorIPN3smt5enodeELb0EjEC2Ev(ptr noundef nonnull align 8 dereferenceable(8) %this) unnamed_addr #4 comdat align 2 {
entry:
  %this.addr = alloca ptr, align 8
  store ptr %this, ptr %this.addr, align 8
  %this1 = load ptr, ptr %this.addr, align 8
  %m_data = getelementptr inbounds %class.vector.14, ptr %this1, i32 0, i32 0
  store ptr null, ptr %m_data, align 8
  ret void
}

; Function Attrs: mustprogress uwtable
define internal noundef ptr @_ZN12_GLOBAL__N_117code_tree_manager8mk_instrINS_11instructionEEEPT_NS_6opcodeEj(ptr noundef nonnull align 8 dereferenceable(24) %this, i32 noundef %op, i32 noundef %size) #5 align 2 {
entry:
  %this.addr = alloca ptr, align 8
  %op.addr = alloca i32, align 4
  %size.addr = alloca i32, align 4
  %mem = alloca ptr, align 8
  %r = alloca ptr, align 8
  store ptr %this, ptr %this.addr, align 8
  store i32 %op, ptr %op.addr, align 4
  store i32 %size, ptr %size.addr, align 4
  %this1 = load ptr, ptr %this.addr, align 8
  %m_region = getelementptr inbounds %"class.(anonymous namespace)::code_tree_manager", ptr %this1, i32 0, i32 2
  %0 = load ptr, ptr %m_region, align 8
  %1 = load i32, ptr %size.addr, align 4
  %conv = zext i32 %1 to i64
  %call = call noundef ptr @_ZN6region8allocateEm(ptr noundef nonnull align 8 dereferenceable(40) %0, i64 noundef %conv)
  store ptr %call, ptr %mem, align 8
  %2 = load ptr, ptr %mem, align 8
  call void @_ZN12_GLOBAL__N_111instructionC2Ev(ptr noundef nonnull align 8 dereferenceable(16) %2) #3
  store ptr %2, ptr %r, align 8
  %3 = load i32, ptr %op.addr, align 4
  %4 = load ptr, ptr %r, align 8
  %m_opcode = getelementptr inbounds %"struct.(anonymous namespace)::instruction", ptr %4, i32 0, i32 0
  store i32 %3, ptr %m_opcode, align 8
  %5 = load ptr, ptr %r, align 8
  %m_next = getelementptr inbounds %"struct.(anonymous namespace)::instruction", ptr %5, i32 0, i32 1
  store ptr null, ptr %m_next, align 8
  %6 = load ptr, ptr %r, align 8
  ret ptr %6
}

; Function Attrs: mustprogress uwtable
define internal noundef ptr @_ZN12_GLOBAL__N_117code_tree_manager8mk_instrINS_5initnEEEPT_NS_6opcodeEj(ptr noundef nonnull align 8 dereferenceable(24) %this, i32 noundef %op, i32 noundef %size) #5 align 2 {
entry:
  %this.addr = alloca ptr, align 8
  %op.addr = alloca i32, align 4
  %size.addr = alloca i32, align 4
  %mem = alloca ptr, align 8
  %r = alloca ptr, align 8
  store ptr %this, ptr %this.addr, align 8
  store i32 %op, ptr %op.addr, align 4
  store i32 %size, ptr %size.addr, align 4
  %this1 = load ptr, ptr %this.addr, align 8
  %m_region = getelementptr inbounds %"class.(anonymous namespace)::code_tree_manager", ptr %this1, i32 0, i32 2
  %0 = load ptr, ptr %m_region, align 8
  %1 = load i32, ptr %size.addr, align 4
  %conv = zext i32 %1 to i64
  %call = call noundef ptr @_ZN6region8allocateEm(ptr noundef nonnull align 8 dereferenceable(40) %0, i64 noundef %conv)
  store ptr %call, ptr %mem, align 8
  %2 = load ptr, ptr %mem, align 8
  call void @_ZN12_GLOBAL__N_15initnC2Ev(ptr noundef nonnull align 8 dereferenceable(20) %2) #3
  store ptr %2, ptr %r, align 8
  %3 = load i32, ptr %op.addr, align 4
  %4 = load ptr, ptr %r, align 8
  %m_opcode = getelementptr inbounds %"struct.(anonymous namespace)::instruction", ptr %4, i32 0, i32 0
  store i32 %3, ptr %m_opcode, align 8
  %5 = load ptr, ptr %r, align 8
  %m_next = getelementptr inbounds %"struct.(anonymous namespace)::instruction", ptr %5, i32 0, i32 1
  store ptr null, ptr %m_next, align 8
  %6 = load ptr, ptr %r, align 8
  ret ptr %6
}

; Function Attrs: mustprogress nounwind uwtable
define linkonce_odr hidden void @_ZN10ptr_vectorIN3smt5enodeEEC2Ev(ptr noundef nonnull align 8 dereferenceable(8) %this) unnamed_addr #4 comdat align 2 {
entry:
  %this.addr = alloca ptr, align 8
  store ptr %this, ptr %this.addr, align 8
  %this1 = load ptr, ptr %this.addr, align 8
  %0 = getelementptr inbounds i8, ptr %this1, i64 0
  call void @llvm.memset.p0.i64(ptr align 8 %0, i8 0, i64 8, i1 false)
  call void @_ZN6vectorIPN3smt5enodeELb0EjEC2Ev(ptr noundef nonnull align 8 dereferenceable(8) %this1) #3
  ret void
}

; Function Attrs: mustprogress uwtable
define internal noundef ptr @_ZN12_GLOBAL__N_117code_tree_manager7mk_initEj(ptr noundef nonnull align 8 dereferenceable(24) %this, i32 noundef %n) #5 align 2 {
entry:
  %retval = alloca ptr, align 8
  %this.addr = alloca ptr, align 8
  %n.addr = alloca i32, align 4
  %op = alloca i32, align 4
  %r = alloca ptr, align 8
  store ptr %this, ptr %this.addr, align 8
  store i32 %n, ptr %n.addr, align 4
  %this1 = load ptr, ptr %this.addr, align 8
  %0 = load i32, ptr %n.addr, align 4
  %cmp = icmp ule i32 %0, 6
  br i1 %cmp, label %cond.true, label %cond.false

cond.true:                                        ; preds = %entry
  %1 = load i32, ptr %n.addr, align 4
  %add = add i32 0, %1
  %sub = sub i32 %add, 1
  br label %cond.end

cond.false:                                       ; preds = %entry
  br label %cond.end

cond.end:                                         ; preds = %cond.false, %cond.true
  %cond = phi i32 [ %sub, %cond.true ], [ 6, %cond.false ]
  store i32 %cond, ptr %op, align 4
  %2 = load i32, ptr %op, align 4
  %cmp2 = icmp eq i32 %2, 6
  br i1 %cmp2, label %if.then, label %if.else

if.then:                                          ; preds = %cond.end
  %3 = load i32, ptr %op, align 4
  %call = call noundef ptr @_ZN12_GLOBAL__N_117code_tree_manager8mk_instrINS_5initnEEEPT_NS_6opcodeEj(ptr noundef nonnull align 8 dereferenceable(24) %this1, i32 noundef %3, i32 noundef 24)
  store ptr %call, ptr %r, align 8
  %4 = load i32, ptr %n.addr, align 4
  %5 = load ptr, ptr %r, align 8
  %m_num_args = getelementptr inbounds %"struct.(anonymous namespace)::initn", ptr %5, i32 0, i32 1
  store i32 %4, ptr %m_num_args, align 8
  %6 = load ptr, ptr %r, align 8
  store ptr %6, ptr %retval, align 8
  br label %return

if.else:                                          ; preds = %cond.end
  %7 = load i32, ptr %op, align 4
  %call3 = call noundef ptr @_ZN12_GLOBAL__N_117code_tree_manager8mk_instrINS_11instructionEEEPT_NS_6opcodeEj(ptr noundef nonnull align 8 dereferenceable(24) %this1, i32 noundef %7, i32 noundef 16)
  store ptr %call3, ptr %retval, align 8
  br label %return

return:                                           ; preds = %if.else, %if.then
  %8 = load ptr, ptr %retval, align 8
  ret ptr %8
}

; Function Attrs: mustprogress uwtable
define internal void @_ZN12_GLOBAL__N_19code_treeC2ERNS_12label_hasherEP9func_decltb(ptr noundef nonnull align 8 dereferenceable(48) %this, ptr noundef nonnull align 8 dereferenceable(8) %h, ptr noundef %lbl, i16 noundef zeroext %num_args, i1 noundef zeroext %filter_candidates) unnamed_addr #5 align 2 {
entry:
  %this.addr = alloca ptr, align 8
  %h.addr = alloca ptr, align 8
  %lbl.addr = alloca ptr, align 8
  %num_args.addr = alloca i16, align 2
  %filter_candidates.addr = alloca i8, align 1
  store ptr %this, ptr %this.addr, align 8
  store ptr %h, ptr %h.addr, align 8
  store ptr %lbl, ptr %lbl.addr, align 8
  store i16 %num_args, ptr %num_args.addr, align 2
  %frombool = zext i1 %filter_candidates to i8
  store i8 %frombool, ptr %filter_candidates.addr, align 1
  %this1 = load ptr, ptr %this.addr, align 8
  %m_lbl_hasher = getelementptr inbounds %"class.(anonymous namespace)::code_tree", ptr %this1, i32 0, i32 0
  %0 = load ptr, ptr %h.addr, align 8
  store ptr %0, ptr %m_lbl_hasher, align 8
  %m_root_lbl = getelementptr inbounds %"class.(anonymous namespace)::code_tree", ptr %this1, i32 0, i32 1
  %1 = load ptr, ptr %lbl.addr, align 8
  store ptr %1, ptr %m_root_lbl, align 8
  %m_num_args = getelementptr inbounds %"class.(anonymous namespace)::code_tree", ptr %this1, i32 0, i32 2
  %2 = load i16, ptr %num_args.addr, align 2
  %conv = zext i16 %2 to i32
  store i32 %conv, ptr %m_num_args, align 8
  %m_filter_candidates = getelementptr inbounds %"class.(anonymous namespace)::code_tree", ptr %this1, i32 0, i32 3
  %3 = load i8, ptr %filter_candidates.addr, align 1
  %tobool = trunc i8 %3 to i1
  %frombool2 = zext i1 %tobool to i8
  store i8 %frombool2, ptr %m_filter_candidates, align 4
  %m_num_regs = getelementptr inbounds %"class.(anonymous namespace)::code_tree", ptr %this1, i32 0, i32 4
  %4 = load i16, ptr %num_args.addr, align 2
  %conv3 = zext i16 %4 to i32
  %add = add nsw i32 %conv3, 1
  store i32 %add, ptr %m_num_regs, align 8
  %m_num_choices = getelementptr inbounds %"class.(anonymous namespace)::code_tree", ptr %this1, i32 0, i32 5
  store i32 0, ptr %m_num_choices, align 4
  %m_root = getelementptr inbounds %"class.(anonymous namespace)::code_tree", ptr %this1, i32 0, i32 6
  store ptr null, ptr %m_root, align 8
  %m_candidates = getelementptr inbounds %"class.(anonymous namespace)::code_tree", ptr %this1, i32 0, i32 7
  call void @_ZN10ptr_vectorIN3smt5enodeEEC2Ev(ptr noundef nonnull align 8 dereferenceable(8) %m_candidates)
  ret void
}

; Function Attrs: mustprogress uwtable
define internal noundef ptr @_ZN12_GLOBAL__N_117code_tree_manager12mk_code_treeEP9func_decltb(ptr noundef nonnull align 8 dereferenceable(24) %this, ptr noundef %lbl, i16 noundef zeroext %num_args, i1 noundef zeroext %filter_candidates) #5 align 2 {
entry:
  %this.addr = alloca ptr, align 8
  %lbl.addr = alloca ptr, align 8
  %num_args.addr = alloca i16, align 2
  %filter_candidates.addr = alloca i8, align 1
  %r = alloca ptr, align 8
  store ptr %this, ptr %this.addr, align 8
  store ptr %lbl, ptr %lbl.addr, align 8
  store i16 %num_args, ptr %num_args.addr, align 2
  %frombool = zext i1 %filter_candidates to i8
  store i8 %frombool, ptr %filter_candidates.addr, align 1
  %this1 = load ptr, ptr %this.addr, align 8
  %call = call noalias noundef ptr @_ZN6memory8allocateEm(i64 noundef 48)
  %m_lbl_hasher = getelementptr inbounds %"class.(anonymous namespace)::code_tree_manager", ptr %this1, i32 0, i32 0
  %0 = load ptr, ptr %m_lbl_hasher, align 8
  %1 = load ptr, ptr %lbl.addr, align 8
  %2 = load i16, ptr %num_args.addr, align 2
  %3 = load i8, ptr %filter_candidates.addr, align 1
  %tobool = trunc i8 %3 to i1
  call void @_ZN12_GLOBAL__N_19code_treeC2ERNS_12label_hasherEP9func_decltb(ptr noundef nonnull align 8 dereferenceable(48) %call, ptr noundef nonnull align 8 dereferenceable(8) %0, ptr noundef %1, i16 noundef zeroext %2, i1 noundef zeroext %tobool)
  store ptr %call, ptr %r, align 8
  %4 = load i16, ptr %num_args.addr, align 2
  %conv = zext i16 %4 to i32
  %call2 = call noundef ptr @_ZN12_GLOBAL__N_117code_tree_manager7mk_initEj(ptr noundef nonnull align 8 dereferenceable(24) %this1, i32 noundef %conv)
  %5 = load ptr, ptr %r, align 8
  %m_root = getelementptr inbounds %"class.(anonymous namespace)::code_tree", ptr %5, i32 0, i32 6
  store ptr %call2, ptr %m_root, align 8
  %6 = load ptr, ptr %r, align 8
  ret ptr %6
}

; Function Attrs: mustprogress nounwind uwtable
define linkonce_odr hidden noundef ptr @_ZNK3app8get_declEv(ptr noundef nonnull align 8 dereferenceable(32) %this) #4 comdat align 2 {
entry:
  %this.addr = alloca ptr, align 8
  store ptr %this, ptr %this.addr, align 8
  %this1 = load ptr, ptr %this.addr, align 8
  %m_decl = getelementptr inbounds %class.app, ptr %this1, i32 0, i32 1
  %0 = load ptr, ptr %m_decl, align 8
  ret ptr %0
}

; Function Attrs: mustprogress nounwind uwtable
define linkonce_odr hidden noundef i32 @_ZNK3app12get_num_argsEv(ptr noundef nonnull align 8 dereferenceable(32) %this) #4 comdat align 2 {
entry:
  %this.addr = alloca ptr, align 8
  store ptr %this, ptr %this.addr, align 8
  %this1 = load ptr, ptr %this.addr, align 8
  %m_num_args = getelementptr inbounds %class.app, ptr %this1, i32 0, i32 2
  %0 = load i32, ptr %m_num_args, align 8
  ret i32 %0
}

; Function Attrs: mustprogress nounwind uwtable
define linkonce_odr hidden noundef ptr @_Z6to_appP3ast(ptr noundef %n) #4 comdat {
entry:
  %n.addr = alloca ptr, align 8
  store ptr %n, ptr %n.addr, align 8
  %0 = load ptr, ptr %n.addr, align 8
  ret ptr %0
}

; Function Attrs: mustprogress nounwind uwtable
define linkonce_odr hidden noundef ptr @_ZNK3app7get_argEj(ptr noundef nonnull align 8 dereferenceable(32) %this, i32 noundef %idx) #4 comdat align 2 {
entry:
  %this.addr = alloca ptr, align 8
  %idx.addr = alloca i32, align 4
  store ptr %this, ptr %this.addr, align 8
  store i32 %idx, ptr %idx.addr, align 4
  %this1 = load ptr, ptr %this.addr, align 8
  %m_args = getelementptr inbounds %class.app, ptr %this1, i32 0, i32 3
  %0 = load i32, ptr %idx.addr, align 4
  %idxprom = zext i32 %0 to i64
  %arrayidx = getelementptr inbounds [0 x ptr], ptr %m_args, i64 0, i64 %idxprom
  %1 = load ptr, ptr %arrayidx, align 8
  ret ptr %1
}

; Function Attrs: mustprogress uwtable
define internal noundef ptr @_ZN12_GLOBAL__N_18compiler7mk_treeEP10quantifierP3appjb(ptr noundef nonnull align 8 dereferenceable(176) %this, ptr noundef %qa, ptr noundef %mp, i32 noundef %first_idx, i1 noundef zeroext %filter_candidates) #5 align 2 {
entry:
  %this.addr = alloca ptr, align 8
  %qa.addr = alloca ptr, align 8
  %mp.addr = alloca ptr, align 8
  %first_idx.addr = alloca i32, align 4
  %filter_candidates.addr = alloca i8, align 1
  %p = alloca ptr, align 8
  %num_args = alloca i32, align 4
  %r = alloca ptr, align 8
  store ptr %this, ptr %this.addr, align 8
  store ptr %qa, ptr %qa.addr, align 8
  store ptr %mp, ptr %mp.addr, align 8
  store i32 %first_idx, ptr %first_idx.addr, align 4
  %frombool = zext i1 %filter_candidates to i8
  store i8 %frombool, ptr %filter_candidates.addr, align 1
  %this1 = load ptr, ptr %this.addr, align 8
  %0 = load ptr, ptr %mp.addr, align 8
  %1 = load i32, ptr %first_idx.addr, align 4
  %call = call noundef ptr @_ZNK3app7get_argEj(ptr noundef nonnull align 8 dereferenceable(32) %0, i32 noundef %1)
  %call2 = call noundef ptr @_Z6to_appP3ast(ptr noundef %call)
  store ptr %call2, ptr %p, align 8
  %2 = load ptr, ptr %p, align 8
  %call3 = call noundef i32 @_ZNK3app12get_num_argsEv(ptr noundef nonnull align 8 dereferenceable(32) %2)
  store i32 %call3, ptr %num_args, align 4
  %m_ct_manager = getelementptr inbounds %"class.(anonymous namespace)::compiler", ptr %this1, i32 0, i32 2
  %3 = load ptr, ptr %m_ct_manager, align 8
  %4 = load ptr, ptr %p, align 8
  %call4 = call noundef ptr @_ZNK3app8get_declEv(ptr noundef nonnull align 8 dereferenceable(32) %4)
  %5 = load i32, ptr %num_args, align 4
  %conv = trunc i32 %5 to i16
  %6 = load i8, ptr %filter_candidates.addr, align 1
  %tobool = trunc i8 %6 to i1
  %call5 = call noundef ptr @_ZN12_GLOBAL__N_117code_tree_manager12mk_code_treeEP9func_decltb(ptr noundef nonnull align 8 dereferenceable(24) %3, ptr noundef %call4, i16 noundef zeroext %conv, i1 noundef zeroext %tobool)
  store ptr %call5, ptr %r, align 8
  %7 = load ptr, ptr %r, align 8
  %8 = load ptr, ptr %qa.addr, align 8
  %9 = load ptr, ptr %mp.addr, align 8
  %10 = load i32, ptr %first_idx.addr, align 4
  call void @_ZN12_GLOBAL__N_18compiler4initEPNS_9code_treeEP10quantifierP3appj(ptr noundef nonnull align 8 dereferenceable(176) %this1, ptr noundef %7, ptr noundef %8, ptr noundef %9, i32 noundef %10)
  %11 = load ptr, ptr %r, align 8
  %m_root = getelementptr inbounds %"class.(anonymous namespace)::code_tree", ptr %11, i32 0, i32 6
  %12 = load ptr, ptr %m_root, align 8
  %13 = load i32, ptr %first_idx.addr, align 4
  call void @_ZN12_GLOBAL__N_18compiler9lineariseEPNS_11instructionEj(ptr noundef nonnull align 8 dereferenceable(176) %this1, ptr noundef %12, i32 noundef %13)
  %m_num_choices = getelementptr inbounds %"class.(anonymous namespace)::compiler", ptr %this1, i32 0, i32 12
  %14 = load i32, ptr %m_num_choices, align 8
  %15 = load ptr, ptr %r, align 8
  %m_num_choices6 = getelementptr inbounds %"class.(anonymous namespace)::code_tree", ptr %15, i32 0, i32 5
  store i32 %14, ptr %m_num_choices6, align 4
  %16 = load ptr, ptr %r, align 8
  ret ptr %16
}