; Function Attrs: mustprogress uwtable
define internal fastcc noundef ptr @_ZN12_GLOBAL__N_18compiler7mk_treeEP10quantifierP3appjb(ptr noundef nonnull align 8 dereferenceable(176) %this, ptr noundef %qa, ptr noundef %mp, i32 noundef %first_idx, i1 noundef zeroext %filter_candidates) unnamed_addr #3 align 2 {
entry:
  %m_args.i = getelementptr inbounds i8, ptr %mp, i64 32
  %idxprom.i = zext i32 %first_idx to i64
  %arrayidx.i = getelementptr inbounds [0 x ptr], ptr %m_args.i, i64 0, i64 %idxprom.i
  %0 = load ptr, ptr %arrayidx.i, align 8
  %m_num_args.i = getelementptr inbounds i8, ptr %0, i64 24
  %1 = load i32, ptr %m_num_args.i, align 8
  %m_ct_manager = getelementptr inbounds i8, ptr %this, i64 16
  %2 = load ptr, ptr %m_ct_manager, align 8
  %m_decl.i = getelementptr inbounds i8, ptr %0, i64 16
  %3 = load ptr, ptr %m_decl.i, align 8
  %conv = trunc i32 %1 to i16
  %call.i = tail call noalias noundef ptr @_ZN6memory8allocateEm(i64 noundef 48)
  %4 = load ptr, ptr %2, align 8
  %frombool.i.i = zext i1 %filter_candidates to i8
  store ptr %4, ptr %call.i, align 8
  %m_root_lbl.i.i = getelementptr inbounds i8, ptr %call.i, i64 8
  store ptr %3, ptr %m_root_lbl.i.i, align 8
  %m_num_args.i.i = getelementptr inbounds i8, ptr %call.i, i64 16
  %conv.i.i = and i32 %1, 65535
  store i32 %conv.i.i, ptr %m_num_args.i.i, align 8
  %m_filter_candidates.i.i = getelementptr inbounds i8, ptr %call.i, i64 20
  store i8 %frombool.i.i, ptr %m_filter_candidates.i.i, align 4
  %m_num_regs.i.i = getelementptr inbounds i8, ptr %call.i, i64 24
  %add.i.i = add nuw nsw i32 %conv.i.i, 1
  store i32 %add.i.i, ptr %m_num_regs.i.i, align 8
  %m_num_choices.i.i = getelementptr inbounds i8, ptr %call.i, i64 28
  tail call void @llvm.memset.p0.i64(ptr noundef nonnull align 4 dereferenceable(20) %m_num_choices.i.i, i8 0, i64 20, i1 false)
  %5 = getelementptr inbounds i8, ptr %2, i64 16
  %this.val.i = load ptr, ptr %5, align 8
  %cmp2.i.i = icmp ugt i16 %conv, 6
  br i1 %cmp2.i.i, label %if.then.i.i, label %if.else.i.i

if.then.i.i:                                      ; preds = %entry
  %call.i.i.i = tail call noundef ptr @_ZN6region8allocateEm(ptr noundef nonnull align 8 dereferenceable(40) %this.val.i, i64 noundef 24)
  %m_next.i.i.i.i.i = getelementptr inbounds i8, ptr %call.i.i.i, i64 8
  store i32 6, ptr %call.i.i.i, align 8
  store ptr null, ptr %m_next.i.i.i.i.i, align 8
  %m_num_args.i3.i = getelementptr inbounds i8, ptr %call.i.i.i, i64 16
  store i32 %conv.i.i, ptr %m_num_args.i3.i, align 8
  br label %_ZN12_GLOBAL__N_117code_tree_manager12mk_code_treeEP9func_decltb.exit

if.else.i.i:                                      ; preds = %entry
  %sub.i.i = add nsw i32 %conv.i.i, -1
  %call.i8.i.i = tail call noundef ptr @_ZN6region8allocateEm(ptr noundef nonnull align 8 dereferenceable(40) %this.val.i, i64 noundef 16)
  %m_next.i.i.i.i = getelementptr inbounds i8, ptr %call.i8.i.i, i64 8
  store i32 %sub.i.i, ptr %call.i8.i.i, align 8
  store ptr null, ptr %m_next.i.i.i.i, align 8
  br label %_ZN12_GLOBAL__N_117code_tree_manager12mk_code_treeEP9func_decltb.exit

_ZN12_GLOBAL__N_117code_tree_manager12mk_code_treeEP9func_decltb.exit: ; preds = %if.then.i.i, %if.else.i.i
  %retval.0.i.i = phi ptr [ %call.i.i.i, %if.then.i.i ], [ %call.i8.i.i, %if.else.i.i ]
  %m_root.i = getelementptr inbounds i8, ptr %call.i, i64 32
  store ptr %retval.0.i.i, ptr %m_root.i, align 8
  tail call fastcc void @_ZN12_GLOBAL__N_18compiler4initEPNS_9code_treeEP10quantifierP3appj(ptr noundef nonnull align 8 dereferenceable(176) %this, ptr noundef nonnull %call.i, ptr noundef %qa, ptr noundef nonnull %mp, i32 noundef %first_idx)
  %6 = load ptr, ptr %m_root.i, align 8
  tail call fastcc void @_ZN12_GLOBAL__N_18compiler9lineariseEPNS_11instructionEj(ptr noundef nonnull align 8 dereferenceable(176) %this, ptr noundef %6, i32 noundef %first_idx)
  %m_num_choices = getelementptr inbounds i8, ptr %this, i64 96
  %7 = load i32, ptr %m_num_choices, align 8
  store i32 %7, ptr %m_num_choices.i.i, align 4
  ret ptr %call.i
}